; Function Attrs: nounwind uwtable
define zeroext range(i8 0, 2) i8 @l_Lean_isInductiveCore(ptr noundef %0, ptr noundef %1) local_unnamed_addr #0 {
  %3 = tail call ptr @l_Lean_Environment_findAsync_x3f(ptr noundef %0, ptr noundef %1, i8 noundef zeroext 0) #4
  %4 = ptrtoint ptr %3 to i64
  %5 = and i64 %4, 1
  %.not.i21 = icmp eq i64 %5, 0
  br i1 %.not.i21, label %9, label %6

6:                                                ; preds = %2
  %7 = lshr i64 %4, 1
  %8 = trunc i64 %7 to i32
  br label %lean_obj_tag.exit

9:                                                ; preds = %2
  %10 = getelementptr i8, ptr %3, i64 4
  %.val.i = load i32, ptr %10, align 4
  %11 = lshr i32 %.val.i, 24
  br label %lean_obj_tag.exit

lean_obj_tag.exit:                                ; preds = %6, %9
  %.0.i = phi i32 [ %8, %6 ], [ %11, %9 ]
  %12 = icmp eq i32 %.0.i, 0
  br i1 %12, label %lean_dec.exit, label %13

13:                                               ; preds = %lean_obj_tag.exit
  %14 = getelementptr inbounds nuw i8, ptr %3, i64 8
  %15 = load ptr, ptr %14, align 8, !tbaa !10
  %16 = ptrtoint ptr %15 to i64
  %17 = and i64 %16, 1
  %.not = icmp eq i64 %17, 0
  br i1 %.not, label %18, label %lean_inc.exit

18:                                               ; preds = %13
  %.val.i22 = load i32, ptr %15, align 4, !tbaa !4
  %19 = icmp sgt i32 %.val.i22, 0
  br i1 %19, label %20, label %22, !prof !9

20:                                               ; preds = %18
  %21 = add nuw i32 %.val.i22, 1
  store i32 %21, ptr %15, align 4, !tbaa !4
  br label %lean_inc.exit

22:                                               ; preds = %18
  %.not.i23 = icmp eq i32 %.val.i22, 0
  br i1 %.not.i23, label %lean_inc.exit, label %23

23:                                               ; preds = %22
  tail call void @lean_inc_ref_cold(ptr noundef nonnull %15) #4
  br label %lean_inc.exit

lean_inc.exit:                                    ; preds = %23, %22, %20, %13
  br i1 %.not.i21, label %24, label %lean_dec.exit16

24:                                               ; preds = %lean_inc.exit
  %25 = load i32, ptr %3, align 4, !tbaa !4
  %26 = icmp sgt i32 %25, 1
  br i1 %26, label %27, label %29, !prof !9

27:                                               ; preds = %24
  %28 = add nsw i32 %25, -1
  store i32 %28, ptr %3, align 4, !tbaa !4
  br label %lean_dec.exit16

29:                                               ; preds = %24
  %.not.i = icmp eq i32 %25, 0
  br i1 %.not.i, label %lean_dec.exit16, label %30

30:                                               ; preds = %29
  tail call void @lean_dec_ref_cold(ptr noundef nonnull %3) #4
  br label %lean_dec.exit16

lean_dec.exit16:                                  ; preds = %30, %29, %27, %lean_inc.exit
  %31 = getelementptr inbounds nuw i8, ptr %15, i64 32
  %32 = load i8, ptr %31, align 1, !tbaa !14
  br i1 %.not, label %33, label %lean_dec.exit15

33:                                               ; preds = %lean_dec.exit16
  %34 = load i32, ptr %15, align 4, !tbaa !4
  %35 = icmp sgt i32 %34, 1
  br i1 %35, label %36, label %38, !prof !9

36:                                               ; preds = %33
  %37 = add nsw i32 %34, -1
  store i32 %37, ptr %15, align 4, !tbaa !4
  br label %lean_dec.exit15

38:                                               ; preds = %33
  %.not.i17 = icmp eq i32 %34, 0
  br i1 %.not.i17, label %lean_dec.exit15, label %39

39:                                               ; preds = %38
  tail call void @lean_dec_ref_cold(ptr noundef nonnull %15) #4
  br label %lean_dec.exit15

lean_dec.exit15:                                  ; preds = %39, %38, %36, %lean_dec.exit16
  %40 = icmp eq i8 %32, 5
  %spec.select = zext i1 %40 to i8
  br label %lean_dec.exit

lean_dec.exit:                                    ; preds = %lean_dec.exit15, %lean_obj_tag.exit
  %.0 = phi i8 [ 0, %lean_obj_tag.exit ], [ %spec.select, %lean_dec.exit15 ]
  ret i8 %.0
}